target datalayout = "e-m:e-p270:32:32-p271:32:32-p272:64:64-i64:64-i128:128-f80:128-n8:16:32:64-S128"
target triple = "x86_64-pc-linux-gnu"

; Function Attrs: nounwind uwtable
define i32 @EVP_PKEY_digestsign_supports_digest(ptr noundef %0, ptr noundef %1, ptr noundef %2, ptr noundef %3) #0 {
  %5 = alloca i32, align 4
  %6 = alloca ptr, align 8
  %7 = alloca ptr, align 8
  %8 = alloca ptr, align 8
  %9 = alloca ptr, align 8
  %10 = alloca i32, align 4
  %11 = alloca ptr, align 8
  %12 = alloca i32, align 4
  store ptr %0, ptr %6, align 8, !tbaa !3
  store ptr %1, ptr %7, align 8, !tbaa !44
  store ptr %2, ptr %8, align 8, !tbaa !39
  store ptr %3, ptr %9, align 8, !tbaa !39
  call void @llvm.lifetime.start.p0(i64 4, ptr %10) #8
  call void @llvm.lifetime.start.p0(i64 8, ptr %11) #8
  store ptr null, ptr %11, align 8, !tbaa !133
  %13 = call ptr @EVP_MD_CTX_new()
  store ptr %13, ptr %11, align 8, !tbaa !133
  %14 = icmp eq ptr %13, null
  br i1 %14, label %15, label %16

15:                                               ; preds = %4
  store i32 -1, ptr %5, align 4
  store i32 1, ptr %12, align 4
  br label %27

16:                                               ; preds = %4
  %17 = call i32 @ERR_set_mark()
  %18 = load ptr, ptr %11, align 8, !tbaa !133
  %19 = load ptr, ptr %8, align 8, !tbaa !39
  %20 = load ptr, ptr %7, align 8, !tbaa !44
  %21 = load ptr, ptr %9, align 8, !tbaa !39
  %22 = load ptr, ptr %6, align 8, !tbaa !3
  %23 = call i32 @EVP_DigestSignInit_ex(ptr noundef %18, ptr noundef null, ptr noundef %19, ptr noundef %20, ptr noundef %21, ptr noundef %22, ptr noundef null)
  store i32 %23, ptr %10, align 4, !tbaa !8
  %24 = call i32 @ERR_pop_to_mark()
  %25 = load ptr, ptr %11, align 8, !tbaa !133
  call void @EVP_MD_CTX_free(ptr noundef %25)
  %26 = load i32, ptr %10, align 4, !tbaa !8
  store i32 %26, ptr %5, align 4
  store i32 1, ptr %12, align 4
  br label %27

27:                                               ; preds = %16, %15
  call void @llvm.lifetime.end.p0(i64 8, ptr %11) #8
  call void @llvm.lifetime.end.p0(i64 4, ptr %10) #8
  %28 = load i32, ptr %5, align 4
  ret i32 %28
}