; Function Attrs: nounwind uwtable
define i32 @EVP_PKEY_digestsign_supports_digest(ptr noundef %0, ptr noundef %1, ptr noundef %2, ptr noundef %3) local_unnamed_addr #0 {
  %5 = tail call ptr @EVP_MD_CTX_new() #12
  %6 = icmp eq ptr %5, null
  br i1 %6, label %11, label %7

7:                                                ; preds = %4
  %8 = tail call i32 @ERR_set_mark() #12
  %9 = tail call i32 @EVP_DigestSignInit_ex(ptr noundef nonnull %5, ptr noundef null, ptr noundef %2, ptr noundef %1, ptr noundef %3, ptr noundef %0, ptr noundef null) #12
  %10 = tail call i32 @ERR_pop_to_mark() #12
  tail call void @EVP_MD_CTX_free(ptr noundef nonnull %5) #12
  br label %11

11:                                               ; preds = %4, %7
  %.0 = phi i32 [ %9, %7 ], [ -1, %4 ]
  ret i32 %.0
}